(lp0
S'Peptide'
p1
aS'Protein'
p2
aS'CT02_1'
p3
aS'CT02_2'
p4
aS'CT02_3'
p5
aS'CT04_1'
p6
aS'CT04_2'
p7
aS'CT04_3'
p8
aS'CT06_1'
p9
aS'CT06_2'
p10
aS'CT06_3'
p11
aS'CT08_1'
p12
aS'CT08_2'
p13
aS'CT08_3'
p14
aS'CT10_1'
p15
aS'CT10_2'
p16
aS'CT10_3'
p17
aS'CT12_1'
p18
aS'CT12_2'
p19
aS'CT12_3'
p20
aS'CT14_1'
p21
aS'CT14_2'
p22
aS'CT14_3'
p23
aS'CT16_1'
p24
aS'CT16_2'
p25
aS'CT16_3'
p26
aS'CT18_1'
p27
aS'CT18_2'
p28
aS'CT18_3'
p29
aS'CT20_1'
p30
aS'CT20_2'
p31
aS'CT20_3'
p32
aS'CT22_1'
p33
aS'CT22_2'
p34
aS'CT22_3'
p35
aS'CT24_1'
p36
aS'CT24_2'
p37
aS'CT24_3'
p38
aS'CT26_1'
p39
aS'CT26_2'
p40
aS'CT26_3'
p41
aS'CT28_1'
p42
aS'CT28_2'
p43
aS'CT28_3'
p44
aS'CT30_1'
p45
aS'CT30_2'
p46
aS'CT30_3'
p47
aS'CT32_1'
p48
aS'CT32_2'
p49
aS'CT32_3'
p50
aS'CT34_1'
p51
aS'CT34_2'
p52
aS'CT34_3'
p53
aS'CT36_1'
p54
aS'CT36_2'
p55
aS'CT36_3'
p56
aS'CT38_1'
p57
aS'CT38_2'
p58
aS'CT38_3'
p59
aS'CT40_1'
p60
aS'CT40_2'
p61
aS'CT40_3'
p62
aS'CT42_1'
p63
aS'CT42_2'
p64
aS'CT42_3'
p65
aS'CT44_1'
p66
aS'CT44_2'
p67
aS'CT44_3'
p68
aS'CT46_1'
p69
aS'CT46_2'
p70
aS'CT46_3'
p71
aS'CT48_1'
p72
aS'CT48_2'
p73
aS'CT48_3'
p74
a.